; Function Attrs: mustprogress uwtable
define void @_ZN6icu_7522TransliteratorRegistry3putEPNS_14TransliteratorEaR10UErrorCode(ptr noundef nonnull align 8 dereferenceable(312) %this, ptr noundef %adoptedProto, i8 noundef signext %visible, ptr nocapture noundef nonnull writeonly align 4 dereferenceable(4) %ec) local_unnamed_addr #1 align 2 personality ptr @__gxx_personality_v0 {
entry:
  %call = tail call noundef ptr @_ZN6icu_757UMemorynwEm(i64 noundef 104) #15
  %new.isnull = icmp eq ptr %call, null
  br i1 %new.isnull, label %if.then, label %new.notnull

new.notnull:                                      ; preds = %entry
  invoke void @_ZN6icu_7519TransliteratorEntryC1Ev(ptr noundef nonnull align 8 dereferenceable(104) %call)
          to label %if.end unwind label %lpad

if.then:                                          ; preds = %entry
  store i32 7, ptr %ec, align 4
  br label %return

lpad:                                             ; preds = %new.notnull
  %0 = landingpad { ptr, i32 }
          cleanup
  tail call void @_ZN6icu_757UMemorydlEPv(ptr noundef nonnull %call) #15
  resume { ptr, i32 } %0

if.end:                                           ; preds = %new.notnull
  %1 = load i32, ptr %call, align 8
  %cmp.i = icmp eq i32 %1, 3
  br i1 %cmp.i, label %if.then.i, label %_ZN6icu_7519TransliteratorEntry14adoptPrototypeEPNS_14TransliteratorE.exit

if.then.i:                                        ; preds = %if.end
  %u.i = getelementptr inbounds i8, ptr %call, i64 88
  %2 = load ptr, ptr %u.i, align 8
  %isnull.i = icmp eq ptr %2, null
  br i1 %isnull.i, label %_ZN6icu_7519TransliteratorEntry14adoptPrototypeEPNS_14TransliteratorE.exit, label %delete.notnull.i

delete.notnull.i:                                 ; preds = %if.then.i
  %vtable.i = load ptr, ptr %2, align 8
  %vfn.i = getelementptr inbounds i8, ptr %vtable.i, i64 8
  %3 = load ptr, ptr %vfn.i, align 8
  tail call void %3(ptr noundef nonnull align 8 dereferenceable(84) %2) #15
  br label %_ZN6icu_7519TransliteratorEntry14adoptPrototypeEPNS_14TransliteratorE.exit

_ZN6icu_7519TransliteratorEntry14adoptPrototypeEPNS_14TransliteratorE.exit: ; preds = %if.end, %if.then.i, %delete.notnull.i
  store i32 3, ptr %call, align 8
  %u3.i = getelementptr inbounds i8, ptr %call, i64 88
  store ptr %adoptedProto, ptr %u3.i, align 8
  %vtable = load ptr, ptr %adoptedProto, align 8
  %vfn = getelementptr inbounds i8, ptr %vtable, i64 104
  %4 = load ptr, ptr %vfn, align 8
  %call3 = tail call noundef nonnull align 8 dereferenceable(64) ptr %4(ptr noundef nonnull align 8 dereferenceable(84) %adoptedProto)
  tail call void @_ZN6icu_7522TransliteratorRegistry13registerEntryERKNS_13UnicodeStringEPNS_19TransliteratorEntryEa(ptr noundef nonnull align 8 dereferenceable(312) %this, ptr noundef nonnull align 8 dereferenceable(64) %call3, ptr noundef nonnull %call, i8 noundef signext %visible)
  br label %return

return:                                           ; preds = %_ZN6icu_7519TransliteratorEntry14adoptPrototypeEPNS_14TransliteratorE.exit, %if.then
  ret void
}